target datalayout = "e-m:e-p270:32:32-p271:32:32-p272:64:64-i64:64-i128:128-f80:128-n8:16:32:64-S128"
target triple = "x86_64-pc-linux-gnu"

%struct.OSSL_TIME = type { i64 }
%struct.crypto_ex_data_st = type { ptr, ptr }
%struct.CRYPTO_REF_COUNT = type { i32 }
%struct.srp_ctx_st = type { ptr, ptr, ptr, ptr, ptr, ptr, ptr, ptr, ptr, ptr, ptr, ptr, ptr, ptr, i32, i64 }
%struct.ssl_ctx_st = type { ptr, ptr, ptr, ptr, ptr, ptr, ptr, i64, ptr, ptr, i32, %struct.OSSL_TIME, ptr, ptr, ptr, %struct.anon.4, %struct.CRYPTO_REF_COUNT, ptr, ptr, ptr, ptr, ptr, ptr, ptr, ptr, ptr, %struct.crypto_ex_data_st, ptr, ptr, ptr, ptr, ptr, ptr, ptr, i64, i32, i32, i32, i64, ptr, ptr, i32, ptr, ptr, i32, i64, [32 x i8], ptr, ptr, ptr, i32, ptr, ptr, ptr, i64, i64, i64, i64, ptr, ptr, ptr, ptr, ptr, %struct.anon.5, ptr, ptr, ptr, ptr, %struct.srp_ctx_st, %struct.dane_ctx_st, ptr, ptr, ptr, ptr, i32, i32, ptr, ptr, i64, i64, ptr, ptr, ptr, i64, ptr, ptr, i32, ptr, ptr, ptr, [14 x i32], [24 x ptr], [14 x ptr], [14 x i64], i64, ptr, ptr, ptr, i64, i64, ptr, i64, i64, i32, i32, i32, i32, ptr, i64, ptr, i64, i64, ptr, ptr }
%struct.anon.4 = type { i32, i32, i32, i32, i32, i32, i32, i32, i32, i32, i32 }
%struct.anon.5 = type { ptr, ptr, [16 x i8], ptr, ptr, ptr, ptr, ptr, i32, i8, i64, ptr, i64, ptr, i64, ptr, i64, ptr, ptr, i64, ptr, ptr, ptr, i64, ptr, ptr, ptr, ptr, [32 x i8] }
%struct.dane_ctx_st = type { ptr, ptr, i8, i64 }

; Function Attrs: inlinehint nounwind uwtable
define internal i64 @ossl_time2ticks(i64 %0) #2 {
  %2 = alloca %struct.OSSL_TIME, align 8
  %3 = getelementptr inbounds nuw %struct.OSSL_TIME, ptr %2, i32 0, i32 0
  store i64 %0, ptr %3, align 8
  %4 = getelementptr inbounds nuw %struct.OSSL_TIME, ptr %2, i32 0, i32 0
  %5 = load i64, ptr %4, align 8, !tbaa !13
  ret i64 %5
}

; Function Attrs: nounwind uwtable
define i64 @SSL_CTX_get_timeout(ptr noundef %0) #0 {
  %2 = alloca i64, align 8
  %3 = alloca ptr, align 8
  store ptr %0, ptr %3, align 8, !tbaa !149
  %4 = load ptr, ptr %3, align 8, !tbaa !149
  %5 = icmp eq ptr %4, null
  br i1 %5, label %6, label %7

6:                                                ; preds = %1
  store i64 0, ptr %2, align 8
  br label %14

7:                                                ; preds = %1
  %8 = load ptr, ptr %3, align 8, !tbaa !149
  %9 = getelementptr inbounds nuw %struct.ssl_ctx_st, ptr %8, i32 0, i32 11
  %10 = getelementptr inbounds nuw %struct.OSSL_TIME, ptr %9, i32 0, i32 0
  %11 = load i64, ptr %10, align 8
  %12 = call i64 @ossl_time2ticks(i64 %11)
  %13 = udiv i64 %12, 1000000000
  store i64 %13, ptr %2, align 8
  br label %14

14:                                               ; preds = %7, %6
  %15 = load i64, ptr %2, align 8
  ret i64 %15
}