; Function Attrs: mustprogress nofree norecurse nosync nounwind willreturn memory(argmem: read) uwtable
define range(i64 0, 18446744074) i64 @SSL_CTX_get_timeout(ptr noundef readonly captures(address_is_null) %0) local_unnamed_addr #6 {
  %2 = icmp eq ptr %0, null
  br i1 %2, label %7, label %3

3:                                                ; preds = %1
  %4 = getelementptr inbounds nuw i8, ptr %0, i64 88
  %5 = load i64, ptr %4, align 8
  %6 = udiv i64 %5, 1000000000
  br label %7

7:                                                ; preds = %1, %3
  %.0 = phi i64 [ %6, %3 ], [ 0, %1 ]
  ret i64 %.0
}